target datalayout = "e-m:e-p270:32:32-p271:32:32-p272:64:64-i64:64-i128:128-f80:128-n8:16:32:64-S128"
target triple = "x86_64-pc-linux-gnu"

%"class.datalog::execution_context" = type <{ ptr, %class.vector, %class.u_map, ptr, i32, %"struct.datalog::execution_context::stats", [4 x i8] }>
%class.vector = type { ptr }
%class.u_map = type { %class.map }
%class.map = type { %class.table2map }
%class.table2map = type { %class.core_hashtable }
%class.core_hashtable = type <{ ptr, i32, i32, i32, [4 x i8] }>
%"struct.datalog::execution_context::stats" = type { i32, i32, i32, i32, i32, i32, i32, i32, i32, i32, i32, i32, i32, i32 }

; Function Attrs: mustprogress uwtable
define linkonce_odr hidden void @_Z7deallocI9stopwatchEvPT_(ptr noundef %0) #4 comdat {
  %2 = alloca ptr, align 8
  store ptr %0, ptr %2, align 8, !tbaa !257
  %3 = load ptr, ptr %2, align 8, !tbaa !257
  %4 = icmp eq ptr %3, null
  br i1 %4, label %5, label %6

5:                                                ; preds = %1
  br label %8

6:                                                ; preds = %1
  %7 = load ptr, ptr %2, align 8, !tbaa !257
  call void @_ZN6memory10deallocateEPv(ptr noundef %7)
  br label %8

8:                                                ; preds = %6, %5
  ret void
}

; Function Attrs: mustprogress uwtable
define hidden void @_ZN7datalog17execution_context15reset_timelimitEv(ptr noundef nonnull align 8 dereferenceable(108) %0) #4 align 2 {
  %2 = alloca ptr, align 8
  store ptr %0, ptr %2, align 8, !tbaa !3
  %3 = load ptr, ptr %2, align 8
  %4 = getelementptr inbounds nuw %"class.datalog::execution_context", ptr %3, i32 0, i32 3
  %5 = load ptr, ptr %4, align 8, !tbaa !10
  call void @_Z7deallocI9stopwatchEvPT_(ptr noundef %5)
  %6 = getelementptr inbounds nuw %"class.datalog::execution_context", ptr %3, i32 0, i32 3
  store ptr null, ptr %6, align 8, !tbaa !10
  %7 = getelementptr inbounds nuw %"class.datalog::execution_context", ptr %3, i32 0, i32 4
  store i32 0, ptr %7, align 8, !tbaa !23
  ret void
}