; Function Attrs: mustprogress uwtable
define hidden void @_ZN7datalog17execution_context15reset_timelimitEv(ptr noundef nonnull align 8 captures(none) dereferenceable(108) initializes((48, 52)) %0) local_unnamed_addr #3 align 2 {
  %2 = getelementptr inbounds nuw i8, ptr %0, i64 40
  %3 = load ptr, ptr %2, align 8, !tbaa !34
  %4 = icmp eq ptr %3, null
  br i1 %4, label %_Z7deallocI9stopwatchEvPT_.exit, label %5

5:                                                ; preds = %1
  tail call void @_ZN6memory10deallocateEPv(ptr noundef nonnull %3)
  br label %_Z7deallocI9stopwatchEvPT_.exit

_Z7deallocI9stopwatchEvPT_.exit:                  ; preds = %1, %5
  store ptr null, ptr %2, align 8, !tbaa !34
  %6 = getelementptr inbounds nuw i8, ptr %0, i64 48
  store i32 0, ptr %6, align 8, !tbaa !45
  ret void
}